target datalayout = "e-m:e-p270:32:32-p271:32:32-p272:64:64-i64:64-i128:128-f80:128-n8:16:32:64-S128"
target triple = "x86_64-pc-linux-gnu"

%struct._packet_info = type { ptr, ptr, i32, i32, %struct.nstime_t, %struct.nstime_t, %struct.nstime_t, i8, ptr, ptr, ptr, ptr, %struct._address, %struct._address, %struct._address, %struct._address, %struct._address, %struct._address, i32, ptr, i8, [3 x i8], %struct.anon, i32, i32, i32, i32, ptr, i8, ptr, ptr, i16, i16, i32, i32, i16, i32, i32, ptr, ptr, ptr, i8, i8, i16, i16, i16, i32, i16, i16, ptr, ptr, ptr, ptr, ptr, i32, i32 }
%struct.nstime_t = type { i64, i32 }
%struct._address = type { i32, i32, ptr, ptr }
%struct.anon = type { i8, [3 x i8] }

@hf_gsm_a_rr_apdu_id = internal global i32 0, align 4
@proto_a_rr = internal global i32 0, align 4

; Function Attrs: null_pointer_is_valid sspstrong uwtable
define internal zeroext i16 @de_rr_apdu_id(ptr noundef %0, ptr noundef %1, ptr noundef %2, i32 noundef %3, i32 noundef %4, ptr noundef %5, i32 noundef %6) #1 {
  %8 = alloca ptr, align 8
  %9 = alloca ptr, align 8
  %10 = alloca ptr, align 8
  %11 = alloca i32, align 4
  %12 = alloca i32, align 4
  %13 = alloca ptr, align 8
  %14 = alloca i32, align 4
  %15 = alloca ptr, align 8
  store ptr %0, ptr %8, align 8
  store ptr %1, ptr %9, align 8
  store ptr %2, ptr %10, align 8
  store i32 %3, ptr %11, align 4
  store i32 %4, ptr %12, align 4
  store ptr %5, ptr %13, align 8
  store i32 %6, ptr %14, align 4
  call void @llvm.lifetime.start.p0(i64 8, ptr %15) #11
  %16 = load ptr, ptr %10, align 8
  %17 = getelementptr inbounds nuw %struct._packet_info, ptr %16, i32 0, i32 51
  %18 = load ptr, ptr %17, align 8
  %19 = call noalias ptr @wmem_alloc(ptr noundef %18, i64 noundef 4) #12
  store ptr %19, ptr %15, align 8
  %20 = load ptr, ptr %9, align 8
  %21 = load i32, ptr @hf_gsm_a_rr_apdu_id, align 4
  %22 = load ptr, ptr %8, align 8
  %23 = load i32, ptr %11, align 4
  %24 = load ptr, ptr %15, align 8
  %25 = call ptr @proto_tree_add_item_ret_uint(ptr noundef %20, i32 noundef %21, ptr noundef %22, i32 noundef %23, i32 noundef 1, i32 noundef 0, ptr noundef %24)
  %26 = load ptr, ptr %10, align 8
  %27 = getelementptr inbounds nuw %struct._packet_info, ptr %26, i32 0, i32 51
  %28 = load ptr, ptr %27, align 8
  %29 = load ptr, ptr %10, align 8
  %30 = load i32, ptr @proto_a_rr, align 4
  %31 = load ptr, ptr %10, align 8
  %32 = getelementptr inbounds nuw %struct._packet_info, ptr %31, i32 0, i32 41
  %33 = load i8, ptr %32, align 8
  %34 = zext i8 %33 to i32
  %35 = load ptr, ptr %15, align 8
  call void @p_add_proto_data(ptr noundef %28, ptr noundef %29, i32 noundef %30, i32 noundef %34, ptr noundef %35)
  call void @llvm.lifetime.end.p0(i64 8, ptr %15) #11
  ret i16 0
}