; Function Attrs: null_pointer_is_valid sspstrong uwtable
define internal noundef zeroext i16 @de_rr_apdu_id(ptr noundef %0, ptr noundef %1, ptr noundef %2, i32 noundef %3, i32 %4, ptr readnone captures(none) %5, i32 %6) #3 {
  %8 = getelementptr inbounds nuw i8, ptr %2, i64 408
  %9 = load ptr, ptr %8, align 8
  %10 = tail call noalias dereferenceable_or_null(4) ptr @wmem_alloc(ptr noundef %9, i64 noundef 4) #12
  %11 = load i32, ptr @hf_gsm_a_rr_apdu_id, align 4
  %12 = tail call ptr @proto_tree_add_item_ret_uint(ptr noundef %1, i32 noundef %11, ptr noundef %0, i32 noundef %3, i32 noundef 1, i32 noundef 0, ptr noundef %10)
  %13 = load ptr, ptr %8, align 8
  %14 = load i32, ptr @proto_a_rr, align 4
  %15 = getelementptr inbounds nuw i8, ptr %2, i64 376
  %16 = load i8, ptr %15, align 8
  %17 = zext i8 %16 to i32
  tail call void @p_add_proto_data(ptr noundef %13, ptr noundef %2, i32 noundef %14, i32 noundef %17, ptr noundef %10)
  ret i16 0
}